target datalayout = "e-m:e-p270:32:32-p271:32:32-p272:64:64-i64:64-i128:128-f80:128-n8:16:32:64-S128"
target triple = "x86_64-pc-linux-gnu"

%struct.tls_buffer_st = type { ptr, i64, i64, i64, i64, i32, i32 }
%struct.tls_rl_record_st = type { i32, i32, i64, i64, i64, ptr, ptr, ptr, i16, [8 x i8] }
%struct.ossl_record_layer_st = type { ptr, ptr, i32, i32, i32, i32, i32, ptr, i16, ptr, ptr, ptr, i64, i32, [33 x %struct.tls_buffer_st], i64, i64, %struct.tls_buffer_st, [32 x %struct.tls_rl_record_st], i64, i64, i64, i32, ptr, i64, [8 x i8], i32, i32, i64, i32, ptr, ptr, i64, ptr, ptr, i32, i32, i32, i64, i64, i64, [64 x i8], i32, i32, i32, ptr, ptr, i32, i32, i64, ptr, ptr, %struct.dtls_bitmap_st, %struct.dtls_bitmap_st, i32, ptr, ptr, ptr, ptr, ptr, i64, ptr }
%struct.dtls_bitmap_st = type { i64, [8 x i8] }

@.str = private unnamed_addr constant [43 x i8] c"../openssl/ssl/record/methods/tls_common.c\00", align 1
@__func__.rlayer_early_data_count_ok = private unnamed_addr constant [27 x i8] c"rlayer_early_data_count_ok\00", align 1

; Function Attrs: nounwind uwtable
define internal i32 @rlayer_early_data_count_ok(ptr noundef %0, i64 noundef %1, i64 noundef %2, i32 noundef %3) #0 {
  %5 = alloca i32, align 4
  %6 = alloca ptr, align 8
  %7 = alloca i64, align 8
  %8 = alloca i64, align 8
  %9 = alloca i32, align 4
  %10 = alloca i32, align 4
  %11 = alloca i32, align 4
  store ptr %0, ptr %6, align 8, !tbaa !16
  store i64 %1, ptr %7, align 8, !tbaa !38
  store i64 %2, ptr %8, align 8, !tbaa !38
  store i32 %3, ptr %9, align 4, !tbaa !18
  call void @llvm.lifetime.start.p0(i64 4, ptr %10) #10
  %12 = load ptr, ptr %6, align 8, !tbaa !16
  %13 = getelementptr inbounds nuw %struct.ossl_record_layer_st, ptr %12, i32 0, i32 37
  %14 = load i32, ptr %13, align 8, !tbaa !115
  store i32 %14, ptr %10, align 4, !tbaa !18
  %15 = load i32, ptr %10, align 4, !tbaa !18
  %16 = icmp eq i32 %15, 0
  br i1 %16, label %17, label %22

17:                                               ; preds = %4
  call void @ERR_new()
  call void @ERR_set_debug(ptr noundef @.str, i32 noundef 504, ptr noundef @__func__.rlayer_early_data_count_ok)
  %18 = load ptr, ptr %6, align 8, !tbaa !16
  %19 = load i32, ptr %9, align 4, !tbaa !18
  %20 = icmp ne i32 %19, 0
  %21 = select i1 %20, i32 80, i32 10
  call void (ptr, i32, i32, ptr, ...) @ossl_rlayer_fatal(ptr noundef %18, i32 noundef %21, i32 noundef 164, ptr noundef null)
  store i32 0, ptr %5, align 4
  store i32 1, ptr %11, align 4
  br label %47

22:                                               ; preds = %4
  %23 = load i64, ptr %8, align 8, !tbaa !38
  %24 = load i32, ptr %10, align 4, !tbaa !18
  %25 = zext i32 %24 to i64
  %26 = add i64 %25, %23
  %27 = trunc i64 %26 to i32
  store i32 %27, ptr %10, align 4, !tbaa !18
  %28 = load ptr, ptr %6, align 8, !tbaa !16
  %29 = getelementptr inbounds nuw %struct.ossl_record_layer_st, ptr %28, i32 0, i32 38
  %30 = load i64, ptr %29, align 8, !tbaa !116
  %31 = load i64, ptr %7, align 8, !tbaa !38
  %32 = add i64 %30, %31
  %33 = load i32, ptr %10, align 4, !tbaa !18
  %34 = zext i32 %33 to i64
  %35 = icmp ugt i64 %32, %34
  br i1 %35, label %36, label %41

36:                                               ; preds = %22
  call void @ERR_new()
  call void @ERR_set_debug(ptr noundef @.str, i32 noundef 513, ptr noundef @__func__.rlayer_early_data_count_ok)
  %37 = load ptr, ptr %6, align 8, !tbaa !16
  %38 = load i32, ptr %9, align 4, !tbaa !18
  %39 = icmp ne i32 %38, 0
  %40 = select i1 %39, i32 80, i32 10
  call void (ptr, i32, i32, ptr, ...) @ossl_rlayer_fatal(ptr noundef %37, i32 noundef %40, i32 noundef 164, ptr noundef null)
  store i32 0, ptr %5, align 4
  store i32 1, ptr %11, align 4
  br label %47

41:                                               ; preds = %22
  %42 = load i64, ptr %7, align 8, !tbaa !38
  %43 = load ptr, ptr %6, align 8, !tbaa !16
  %44 = getelementptr inbounds nuw %struct.ossl_record_layer_st, ptr %43, i32 0, i32 38
  %45 = load i64, ptr %44, align 8, !tbaa !116
  %46 = add i64 %45, %42
  store i64 %46, ptr %44, align 8, !tbaa !116
  store i32 1, ptr %5, align 4
  store i32 1, ptr %11, align 4
  br label %47

47:                                               ; preds = %41, %36, %17
  call void @llvm.lifetime.end.p0(i64 4, ptr %10) #10
  %48 = load i32, ptr %5, align 4
  ret i32 %48
}