; Function Attrs: nounwind uwtable
define internal fastcc range(i32 0, 2) i32 @rlayer_early_data_count_ok(ptr noundef captures(none) %0, i64 noundef %1, i64 noundef range(i64 0, 105) %2) unnamed_addr #0 {
  %4 = getelementptr inbounds nuw i8, ptr %0, i64 4176
  %5 = load i32, ptr %4, align 8, !tbaa !91
  %6 = icmp eq i32 %5, 0
  br i1 %6, label %7, label %8

7:                                                ; preds = %3
  tail call void @ERR_new() #13
  tail call void @ERR_set_debug(ptr noundef nonnull @.str, i32 noundef 504, ptr noundef nonnull @__func__.rlayer_early_data_count_ok) #13
  tail call void (ptr, i32, i32, ptr, ...) @ossl_rlayer_fatal(ptr noundef nonnull %0, i32 noundef 10, i32 noundef 164, ptr noundef null)
  br label %18

8:                                                ; preds = %3
  %9 = trunc nuw nsw i64 %2 to i32
  %10 = add i32 %5, %9
  %11 = getelementptr inbounds nuw i8, ptr %0, i64 4184
  %12 = load i64, ptr %11, align 8, !tbaa !92
  %13 = add i64 %12, %1
  %14 = zext i32 %10 to i64
  %15 = icmp ugt i64 %13, %14
  br i1 %15, label %16, label %17

16:                                               ; preds = %8
  tail call void @ERR_new() #13
  tail call void @ERR_set_debug(ptr noundef nonnull @.str, i32 noundef 513, ptr noundef nonnull @__func__.rlayer_early_data_count_ok) #13
  tail call void (ptr, i32, i32, ptr, ...) @ossl_rlayer_fatal(ptr noundef nonnull %0, i32 noundef 10, i32 noundef 164, ptr noundef null)
  br label %18

17:                                               ; preds = %8
  store i64 %13, ptr %11, align 8, !tbaa !92
  br label %18

18:                                               ; preds = %17, %16, %7
  %.0 = phi i32 [ 0, %7 ], [ 0, %16 ], [ 1, %17 ]
  ret i32 %.0
}